; Function Attrs: nounwind uwtable
define dso_local noundef ptr @data_set_string(ptr noundef returned %0, ptr noundef %1) local_unnamed_addr #0 {
  %.not = icmp eq ptr %0, null
  br i1 %.not, label %_set_data_string_inline.exit, label %3

3:                                                ; preds = %2
  tail call fastcc void @_release(ptr noundef nonnull %0)
  %.not18 = icmp eq ptr %1, null
  br i1 %.not18, label %4, label %12

4:                                                ; preds = %3
  %5 = getelementptr inbounds nuw i8, ptr %0, i64 4
  store i32 65281, ptr %5, align 4
  %6 = load i64, ptr getelementptr inbounds nuw (i8, ptr @slurm_conf, i64 320), align 8
  %7 = and i64 %6, 256
  %.not19 = icmp eq i64 %7, 0
  br i1 %.not19, label %_set_data_string_inline.exit, label %8

8:                                                ; preds = %4
  %9 = tail call i32 @get_log_level() #16
  %10 = icmp sgt i32 %9, 3
  br i1 %10, label %11, label %_set_data_string_inline.exit

11:                                               ; preds = %8
  tail call void (i32, ptr, ...) @log_var(i32 noundef 4, ptr noundef nonnull @.str.4, ptr noundef nonnull @__func__.data_set_string, ptr noundef nonnull %0) #16
  br label %_set_data_string_inline.exit

12:                                               ; preds = %3
  %13 = tail call i64 @strlen(ptr noundef nonnull dereferenceable(1) %1) #17
  %sext = shl i64 %13, 32
  %14 = ashr exact i64 %sext, 32
  %15 = icmp ult i64 %14, 8
  br i1 %15, label %16, label %23

16:                                               ; preds = %12
  %17 = getelementptr inbounds nuw i8, ptr %0, i64 8
  %18 = add nuw nsw i64 %14, 1
  tail call void @llvm.memmove.p0.p0.i64(ptr noundef nonnull align 8 dereferenceable(1) %17, ptr noundef nonnull readonly align 1 dereferenceable(1) %1, i64 %18, i1 false)
  %19 = getelementptr inbounds nuw i8, ptr %0, i64 4
  store i32 65286, ptr %19, align 4
  %20 = load i64, ptr getelementptr inbounds nuw (i8, ptr @slurm_conf, i64 320), align 8
  %21 = and i64 %20, 256
  %.not.i = icmp eq i64 %21, 0
  br i1 %.not.i, label %_set_data_string_inline.exit, label %22

22:                                               ; preds = %16
  tail call void (ptr, i64, i64, i64, ptr, ...) @_log_flag_hex(ptr noundef nonnull %17, i64 noundef range(i64 0, 8) %14, i64 noundef -1, i64 noundef -1, ptr noundef nonnull @.str.71, ptr noundef nonnull @__func__._set_data_string_inline, ptr noundef nonnull %0) #16
  br label %_set_data_string_inline.exit

23:                                               ; preds = %12
  %24 = tail call ptr @xstrdup(ptr noundef nonnull %1) #16
  %25 = getelementptr inbounds nuw i8, ptr %0, i64 4
  store i32 65285, ptr %25, align 4
  %26 = getelementptr inbounds nuw i8, ptr %0, i64 8
  store ptr %24, ptr %26, align 8
  %27 = load i64, ptr getelementptr inbounds nuw (i8, ptr @slurm_conf, i64 320), align 8
  %28 = and i64 %27, 256
  %.not.i20 = icmp eq i64 %28, 0
  br i1 %.not.i20, label %_set_data_string_inline.exit, label %29

29:                                               ; preds = %23
  tail call void (ptr, i64, i64, i64, ptr, ...) @_log_flag_hex(ptr noundef %24, i64 noundef range(i64 -2147483648, 2147483648) %14, i64 noundef -1, i64 noundef -1, ptr noundef nonnull @.str.72, ptr noundef nonnull @__func__._set_data_string_ptr, ptr noundef nonnull %0) #16
  br label %_set_data_string_inline.exit

_set_data_string_inline.exit:                     ; preds = %29, %23, %22, %16, %4, %11, %8, %2
  ret ptr %0
}